target datalayout = "e-m:e-p270:32:32-p271:32:32-p272:64:64-i64:64-i128:128-f80:128-n8:16:32:64-S128"
target triple = "x86_64-pc-linux-gnu"

%struct.AVChannelLayout = type { i32, i32, %union.anon.2, ptr }
%union.anon.2 = type { i64 }
%struct.AACDecContext = type { ptr, ptr, %struct.AACDecDSP, %struct.AACDecProc, ptr, i32, %struct.DynamicRangeControl, [4 x [64 x ptr]], [4 x [64 x ptr]], i32, i32, [8 x i8], %union.anon, %union.anon.0, ptr, ptr, ptr, ptr, ptr, ptr, ptr, ptr, ptr, ptr, ptr, ptr, ptr, ptr, ptr, ptr, ptr, ptr, %union.anon.1, i32, [64 x ptr], i32, i32, i32, [2 x %struct.OutputConfiguration], i32, i32, i32, i32, i32, i32, [8 x i8] }
%struct.AACDecDSP = type { ptr, ptr, ptr, ptr, ptr, ptr, ptr, ptr, ptr, ptr, ptr, ptr, ptr, ptr, ptr }
%struct.AACDecProc = type { ptr, ptr, ptr, ptr, ptr, ptr }
%struct.DynamicRangeControl = type { i32, [17 x i32], [17 x i32], [64 x i32], i32, i32, [17 x i32], i32 }
%union.anon = type { [1024 x i32] }
%union.anon.0 = type { [128 x i32] }
%union.anon.1 = type { ptr }
%struct.OutputConfiguration = type { %struct.MPEG4AudioConfig, [256 x [3 x i8]], i32, %struct.AVChannelLayout, i32, %struct.AACUSACConfig }
%struct.MPEG4AudioConfig = type { i32, i32, i32, i32, i32, i32, i32, i32, i32, i32, i32, i32 }
%struct.AACUSACConfig = type { i8, i16, i16, [64 x %struct.AACUsacElemConfig], i32, %struct.anon.6 }
%struct.AACUsacElemConfig = type { i32, i8, i8, %struct.anon, %struct.anon.4, %struct.anon.5 }
%struct.anon = type { i32, i8, %struct.anon.3 }
%struct.anon.3 = type { i8, i8, i8, i8, i8, i8, i8, i8 }
%struct.anon.4 = type { i8, i8, i8, i8, i8, i8, i8, i8, i8 }
%struct.anon.5 = type { i32, i8, i32, i32, ptr }
%struct.anon.6 = type { i8, i8, [64 x %struct.AACUSACLoudnessInfo], i8, i8, [64 x %struct.AACUSACLoudnessInfo] }
%struct.AACUSACLoudnessInfo = type <{ i16, %struct.anon.7, %struct.anon.8, i8, [16 x %struct.anon.9], i8 }>
%struct.anon.7 = type { i16 }
%struct.anon.8 = type { i32 }
%struct.anon.9 = type { i8, i8, i8 }
%struct.AVCodecContext = type { ptr, i32, i32, ptr, i32, i32, ptr, ptr, ptr, i64, i32, i32, ptr, i32, %struct.AVRational, %struct.AVRational, %struct.AVRational, i32, i32, i32, i32, i32, %struct.AVRational, i32, i32, i32, i32, i32, i32, i32, i32, i32, i32, i32, ptr, ptr, i32, float, float, float, float, float, float, float, float, float, i32, i32, i32, i32, i32, i32, i32, i32, i32, i32, i32, i32, ptr, ptr, ptr, i32, i32, i32, i32, i32, i32, i32, i32, i32, i32, %struct.AVChannelLayout, i32, i32, i32, i32, i32, i32, i32, i32, ptr, i32, i32, i32, float, float, i32, i32, i32, i32, i32, ptr, i64, i64, float, float, i32, i32, ptr, ptr, i32, i32, i32, i32, i32, ptr, ptr, ptr, ptr, i32, i32, [8 x i64], i32, i32, i32, i32, i32, i32, i32, ptr, ptr, i32, i32, i32, i32, i32, i32, i32, i32, i32, i32, ptr, ptr, i32, i32, ptr, ptr, ptr, ptr, i32, i32, i64, i32, i32, i64, ptr, i64, ptr, i32, ptr, i32 }
%struct.AVRational = type { i32, i32 }
%struct.ChannelElement = type { i32, i8, [128 x i8], [11 x i8], [2 x %struct.SingleChannelElement], %struct.ChannelCoupling, [8 x i8], %struct.AACUsacStereo }
%struct.SingleChannelElement = type { %struct.IndividualChannelStream, %struct.AACUsacElemData, %struct.TemporalNoiseShaping, [128 x i32], [128 x i32], %union.anon.15, [12 x i8], %union.anon.16, %union.anon.17, %union.anon.18, %union.anon.19, %union.anon.20, %union.anon.21, %union.anon.22 }
%struct.IndividualChannelStream = type { i8, [2 x i32], [2 x i8], i32, i32, [8 x i8], %struct.LongTermPrediction, ptr, i32, i32, i32, i32, i32, i32, [41 x i8], [8 x i8] }
%struct.LongTermPrediction = type { i8, i16, %union.anon.10, [40 x i8] }
%union.anon.10 = type { i32 }
%struct.AACUsacElemData = type { i8, i8, i8, [16 x i8], %struct.anon.12, %struct.anon.13, %struct.anon.14, %struct.AACArithState }
%struct.anon.12 = type { i16, i32 }
%struct.anon.13 = type { i32, i8 }
%struct.anon.14 = type { i8, [8 x [8 x i32]] }
%struct.AACArithState = type { [513 x i8], i32, [4 x i8], i16 }
%struct.TemporalNoiseShaping = type { i32, [8 x i32], [8 x [4 x i32]], [8 x [4 x i32]], [8 x [4 x i32]], %union.anon.11 }
%union.anon.11 = type { [8 x [4 x [20 x i32]]] }
%union.anon.15 = type { [128 x i32] }
%union.anon.16 = type { [1024 x i32] }
%union.anon.17 = type { [1024 x i32] }
%union.anon.18 = type { [1536 x i32] }
%union.anon.19 = type { [2048 x i32] }
%union.anon.20 = type { [3072 x i32] }
%union.anon.21 = type { ptr }
%union.anon.22 = type { ptr }
%struct.ChannelCoupling = type { i32, i32, [8 x i32], [8 x i32], [8 x i32], %union.anon.24 }
%union.anon.24 = type { [16 x [120 x i32]] }
%struct.AACUsacStereo = type { i8, i8, i8, i8, i8, i8, i8, i8, [128 x i8], [8 x i8], %union.anon.25, %union.anon.26, %union.anon.27, %union.anon.28, %union.anon.29, %union.anon.30, %union.anon.31 }
%union.anon.25 = type { [1024 x i32] }
%union.anon.26 = type { [1024 x i32] }
%union.anon.27 = type { [1024 x i32] }
%union.anon.28 = type { [1024 x i32] }
%union.anon.29 = type { [1024 x i32] }
%union.anon.30 = type { [1024 x i32] }
%union.anon.31 = type { [1024 x i32] }

; Function Attrs: cold nounwind optsize uwtable
define internal void @flush(ptr noundef %0) #5 {
  %2 = alloca ptr, align 8
  %3 = alloca ptr, align 8
  %4 = alloca i32, align 4
  %5 = alloca i32, align 4
  %6 = alloca i32, align 4
  %7 = alloca ptr, align 8
  store ptr %0, ptr %2, align 8, !tbaa !22
  call void @llvm.lifetime.start.p0(i64 8, ptr %3) #12
  %8 = load ptr, ptr %2, align 8, !tbaa !22
  %9 = getelementptr inbounds nuw %struct.AVCodecContext, ptr %8, i32 0, i32 6
  %10 = load ptr, ptr %9, align 8, !tbaa !59
  store ptr %10, ptr %3, align 8, !tbaa !4
  call void @llvm.lifetime.start.p0(i64 4, ptr %4) #12
  call void @llvm.lifetime.start.p0(i64 4, ptr %5) #12
  call void @llvm.lifetime.start.p0(i64 4, ptr %6) #12
  store i32 3, ptr %4, align 4, !tbaa !11
  br label %11

11:                                               ; preds = %51, %1
  %12 = load i32, ptr %4, align 4, !tbaa !11
  %13 = icmp sge i32 %12, 0
  br i1 %13, label %14, label %54

14:                                               ; preds = %11
  store i32 0, ptr %5, align 4, !tbaa !11
  br label %15

15:                                               ; preds = %47, %14
  %16 = load i32, ptr %5, align 4, !tbaa !11
  %17 = icmp slt i32 %16, 64
  br i1 %17, label %18, label %50

18:                                               ; preds = %15
  call void @llvm.lifetime.start.p0(i64 8, ptr %7) #12
  %19 = load ptr, ptr %3, align 8, !tbaa !4
  %20 = getelementptr inbounds nuw %struct.AACDecContext, ptr %19, i32 0, i32 7
  %21 = load i32, ptr %4, align 4, !tbaa !11
  %22 = sext i32 %21 to i64
  %23 = getelementptr inbounds [4 x [64 x ptr]], ptr %20, i64 0, i64 %22
  %24 = load i32, ptr %5, align 4, !tbaa !11
  %25 = sext i32 %24 to i64
  %26 = getelementptr inbounds [64 x ptr], ptr %23, i64 0, i64 %25
  %27 = load ptr, ptr %26, align 8, !tbaa !36
  store ptr %27, ptr %7, align 8, !tbaa !36
  %28 = load ptr, ptr %7, align 8, !tbaa !36
  %29 = icmp ne ptr %28, null
  br i1 %29, label %30, label %46

30:                                               ; preds = %18
  store i32 0, ptr %6, align 4, !tbaa !11
  br label %31

31:                                               ; preds = %42, %30
  %32 = load i32, ptr %6, align 4, !tbaa !11
  %33 = icmp sle i32 %32, 1
  br i1 %33, label %34, label %45

34:                                               ; preds = %31
  %35 = load ptr, ptr %7, align 8, !tbaa !36
  %36 = getelementptr inbounds nuw %struct.ChannelElement, ptr %35, i32 0, i32 4
  %37 = load i32, ptr %6, align 4, !tbaa !11
  %38 = sext i32 %37 to i64
  %39 = getelementptr inbounds [2 x %struct.SingleChannelElement], ptr %36, i64 0, i64 %38
  %40 = getelementptr inbounds nuw %struct.SingleChannelElement, ptr %39, i32 0, i32 9
  %41 = getelementptr inbounds [1536 x float], ptr %40, i64 0, i64 0
  call void @llvm.memset.p0.i64(ptr align 16 %41, i8 0, i64 6144, i1 false)
  br label %42

42:                                               ; preds = %34
  %43 = load i32, ptr %6, align 4, !tbaa !11
  %44 = add nsw i32 %43, 1
  store i32 %44, ptr %6, align 4, !tbaa !11
  br label %31, !llvm.loop !182

45:                                               ; preds = %31
  br label %46

46:                                               ; preds = %45, %18
  call void @llvm.lifetime.end.p0(i64 8, ptr %7) #12
  br label %47

47:                                               ; preds = %46
  %48 = load i32, ptr %5, align 4, !tbaa !11
  %49 = add nsw i32 %48, 1
  store i32 %49, ptr %5, align 4, !tbaa !11
  br label %15, !llvm.loop !183

50:                                               ; preds = %15
  br label %51

51:                                               ; preds = %50
  %52 = load i32, ptr %4, align 4, !tbaa !11
  %53 = add nsw i32 %52, -1
  store i32 %53, ptr %4, align 4, !tbaa !11
  br label %11, !llvm.loop !184

54:                                               ; preds = %11
  %55 = load ptr, ptr %3, align 8, !tbaa !4
  %56 = load ptr, ptr %3, align 8, !tbaa !4
  %57 = getelementptr inbounds nuw %struct.AACDecContext, ptr %56, i32 0, i32 38
  %58 = getelementptr inbounds [2 x %struct.OutputConfiguration], ptr %57, i64 0, i64 1
  %59 = call i32 @ff_aac_usac_reset_state(ptr noundef %55, ptr noundef %58)
  call void @llvm.lifetime.end.p0(i64 4, ptr %6) #12
  call void @llvm.lifetime.end.p0(i64 4, ptr %5) #12
  call void @llvm.lifetime.end.p0(i64 4, ptr %4) #12
  call void @llvm.lifetime.end.p0(i64 8, ptr %3) #12
  ret void
}