; Function Attrs: cold nounwind optsize uwtable
define internal void @flush(ptr noundef readonly captures(none) %0) #5 {
  %2 = getelementptr inbounds nuw i8, ptr %0, i64 32
  %3 = load ptr, ptr %2, align 8, !tbaa !51
  %4 = getelementptr inbounds nuw i8, ptr %3, i64 672
  br label %.preheader18

.preheader18:                                     ; preds = %1, %8
  %indvars.iv27 = phi i64 [ 3, %1 ], [ %indvars.iv.next28, %8 ]
  br label %5

5:                                                ; preds = %.preheader18, %.loopexit
  %indvars.iv24 = phi i64 [ 0, %.preheader18 ], [ %indvars.iv.next25, %.loopexit ]
  %6 = getelementptr inbounds nuw [4 x [64 x ptr]], ptr %4, i64 0, i64 %indvars.iv27, i64 %indvars.iv24
  %7 = load ptr, ptr %6, align 8, !tbaa !44
  %.not = icmp eq ptr %7, null
  br i1 %.not, label %.loopexit, label %.preheader

.preheader:                                       ; preds = %5
  %invariant.gep = getelementptr inbounds nuw i8, ptr %7, i64 13856
  tail call void @llvm.memset.p0.i64(ptr noundef nonnull align 16 dereferenceable(6144) %invariant.gep, i8 0, i64 6144, i1 false)
  %gep.c = getelementptr inbounds nuw i8, ptr %7, i64 54208
  tail call void @llvm.memset.p0.i64(ptr noundef nonnull align 16 dereferenceable(6144) %gep.c, i8 0, i64 6144, i1 false)
  br label %.loopexit

.loopexit:                                        ; preds = %.preheader, %5
  %indvars.iv.next25 = add nuw nsw i64 %indvars.iv24, 1
  %exitcond.not = icmp eq i64 %indvars.iv.next25, 64
  br i1 %exitcond.not, label %8, label %5, !llvm.loop !166

8:                                                ; preds = %.loopexit
  %indvars.iv.next28 = add nsw i64 %indvars.iv27, -1
  %.not30 = icmp eq i64 %indvars.iv27, 0
  br i1 %.not30, label %9, label %.preheader18, !llvm.loop !167

9:                                                ; preds = %8
  %10 = getelementptr inbounds nuw i8, ptr %3, i64 22472
  %11 = tail call i32 @ff_aac_usac_reset_state(ptr noundef nonnull %3, ptr noundef nonnull %10) #13
  ret void
}